target datalayout = "e-m:e-p270:32:32-p271:32:32-p272:64:64-i64:64-i128:128-f80:128-n8:16:32:64-S128"
target triple = "x86_64-pc-linux-gnu"

%struct.Map_TimeStruct_t_ = type { float, float, float }
%struct.Map_CutStruct_t_ = type { ptr, ptr, ptr, [6 x ptr], i32, i8, i8, i8, i8, [2 x %struct.Map_MatchStruct_t_] }
%struct.Map_MatchStruct_t_ = type { ptr, i32, i32, ptr, %struct.Map_TimeStruct_t_, float }

; Function Attrs: nounwind uwtable
define internal void @Map_CutsCollect_rec(ptr noundef %0, ptr noundef %1) #0 {
  %3 = alloca ptr, align 8
  %4 = alloca ptr, align 8
  store ptr %0, ptr %3, align 8, !tbaa !53
  store ptr %1, ptr %4, align 8, !tbaa !72
  %5 = load ptr, ptr %3, align 8, !tbaa !53
  %6 = getelementptr inbounds nuw %struct.Map_CutStruct_t_, ptr %5, i32 0, i32 7
  %7 = load i8, ptr %6, align 2, !tbaa !63
  %8 = icmp ne i8 %7, 0
  br i1 %8, label %9, label %10

9:                                                ; preds = %2
  br label %29

10:                                               ; preds = %2
  %11 = load ptr, ptr %3, align 8, !tbaa !53
  %12 = getelementptr inbounds nuw %struct.Map_CutStruct_t_, ptr %11, i32 0, i32 1
  %13 = load ptr, ptr %12, align 8, !tbaa !68
  %14 = ptrtoint ptr %13 to i64
  %15 = and i64 %14, -2
  %16 = inttoptr i64 %15 to ptr
  %17 = load ptr, ptr %4, align 8, !tbaa !72
  call void @Map_CutsCollect_rec(ptr noundef %16, ptr noundef %17)
  %18 = load ptr, ptr %3, align 8, !tbaa !53
  %19 = getelementptr inbounds nuw %struct.Map_CutStruct_t_, ptr %18, i32 0, i32 2
  %20 = load ptr, ptr %19, align 8, !tbaa !69
  %21 = ptrtoint ptr %20 to i64
  %22 = and i64 %21, -2
  %23 = inttoptr i64 %22 to ptr
  %24 = load ptr, ptr %4, align 8, !tbaa !72
  call void @Map_CutsCollect_rec(ptr noundef %23, ptr noundef %24)
  %25 = load ptr, ptr %3, align 8, !tbaa !53
  %26 = getelementptr inbounds nuw %struct.Map_CutStruct_t_, ptr %25, i32 0, i32 7
  store i8 1, ptr %26, align 2, !tbaa !63
  %27 = load ptr, ptr %4, align 8, !tbaa !72
  %28 = load ptr, ptr %3, align 8, !tbaa !53
  call void @Map_NodeVecPush(ptr noundef %27, ptr noundef %28)
  br label %29

29:                                               ; preds = %10, %9
  ret void
}