; Function Attrs: nounwind uwtable
define internal fastcc void @Map_CutsCollect_rec(ptr noundef %0, ptr noundef %1) unnamed_addr #0 {
  %3 = getelementptr inbounds nuw i8, ptr %0, i64 78
  %4 = load i8, ptr %3, align 2, !tbaa !50
  %.not = icmp eq i8 %4, 0
  br i1 %.not, label %5, label %common.ret8

common.ret8:                                      ; preds = %2, %5
  ret void

5:                                                ; preds = %2
  %6 = getelementptr inbounds nuw i8, ptr %0, i64 8
  %7 = load ptr, ptr %6, align 8, !tbaa !57
  %8 = ptrtoint ptr %7 to i64
  %9 = and i64 %8, -2
  %10 = inttoptr i64 %9 to ptr
  tail call fastcc void @Map_CutsCollect_rec(ptr noundef %10, ptr noundef %1)
  %11 = getelementptr inbounds nuw i8, ptr %0, i64 16
  %12 = load ptr, ptr %11, align 8, !tbaa !58
  %13 = ptrtoint ptr %12 to i64
  %14 = and i64 %13, -2
  %15 = inttoptr i64 %14 to ptr
  tail call fastcc void @Map_CutsCollect_rec(ptr noundef %15, ptr noundef %1)
  store i8 1, ptr %3, align 2, !tbaa !50
  tail call void @Map_NodeVecPush(ptr noundef %1, ptr noundef nonnull %0) #3
  br label %common.ret8
}